target datalayout = "e-m:e-p270:32:32-p271:32:32-p272:64:64-i64:64-i128:128-f80:128-n8:16:32:64-S128"
target triple = "x86_64-pc-linux-gnu"

%struct.Gia_Man_t_ = type { ptr, ptr, i32, i32, i32, i32, ptr, ptr, i32, i32, i32, ptr, ptr, %struct.Vec_Int_t_, %struct.Vec_Int_t_, i32, i32, i32, %struct.Vec_Int_t_, ptr, ptr, ptr, i32, i32, i32, i32, ptr, ptr, ptr, ptr, ptr, i32, i32, ptr, i32, ptr, ptr, ptr, ptr, ptr, ptr, ptr, ptr, ptr, ptr, ptr, ptr, ptr, ptr, ptr, ptr, ptr, ptr, %struct.Vec_Int_t_, %struct.Vec_Int_t_, ptr, ptr, ptr, ptr, ptr, ptr, ptr, ptr, ptr, ptr, ptr, ptr, ptr, ptr, ptr, ptr, ptr, ptr, ptr, ptr, ptr, i32, float, float, ptr, ptr, i32, ptr, ptr, ptr, ptr, ptr, ptr, ptr, ptr, ptr, ptr, ptr, ptr, ptr, ptr, ptr, i64, i64, ptr, ptr, i32, i32, i32, i32, i32, i32, i32, i32, i32, i32, i32, i32, ptr, ptr, ptr, ptr, ptr, ptr, ptr, ptr, i32, i32, i32, ptr, i32, i32, ptr, ptr, ptr, ptr, ptr, ptr, i32, i32, ptr, %struct.Vec_Int_t_, %struct.Vec_Int_t_, %struct.Vec_Int_t_, ptr, ptr, ptr }
%struct.Vec_Int_t_ = type { i32, i32, ptr }
%struct.Gia_Obj_t_ = type <{ i64, i32 }>

@.str.5 = private unnamed_addr constant [7 x i8] c"<%02d>\00", align 1
@.str.6 = private unnamed_addr constant [4 x i8] c" [(\00", align 1
@.str.7 = private unnamed_addr constant [3 x i8] c"%d\00", align 1
@.str.8 = private unnamed_addr constant [5 x i8] c"<%d>\00", align 1
@.str.9 = private unnamed_addr constant [2 x i8] c")\00", align 1
@.str.10 = private unnamed_addr constant [2 x i8] c"|\00", align 1
@.str.11 = private unnamed_addr constant [2 x i8] c"]\00", align 1

; Function Attrs: nounwind uwtable
define internal i32 @Gia_ObjFaninId1(ptr noundef %0, i32 noundef %1) #0 {
  %3 = alloca ptr, align 8
  %4 = alloca i32, align 4
  store ptr %0, ptr %3, align 8
  store i32 %1, ptr %4, align 4
  %5 = load i32, ptr %4, align 4
  %6 = load ptr, ptr %3, align 8
  %7 = load i64, ptr %6, align 4
  %8 = lshr i64 %7, 32
  %9 = and i64 %8, 536870911
  %10 = trunc i64 %9 to i32
  %11 = sub nsw i32 %5, %10
  ret i32 %11
}

; Function Attrs: nounwind uwtable
define internal i32 @Gia_ObjFaninId0(ptr noundef %0, i32 noundef %1) #0 {
  %3 = alloca ptr, align 8
  %4 = alloca i32, align 4
  store ptr %0, ptr %3, align 8
  store i32 %1, ptr %4, align 4
  %5 = load i32, ptr %4, align 4
  %6 = load ptr, ptr %3, align 8
  %7 = load i64, ptr %6, align 4
  %8 = and i64 %7, 536870911
  %9 = trunc i64 %8 to i32
  %10 = sub nsw i32 %5, %9
  ret i32 %10
}

; Function Attrs: nounwind uwtable
define internal i32 @Abc_LitIsCompl(i32 noundef %0) #0 {
  %2 = alloca i32, align 4
  store i32 %0, ptr %2, align 4
  %3 = load i32, ptr %2, align 4
  %4 = and i32 %3, 1
  ret i32 %4
}

; Function Attrs: nounwind uwtable
define internal i32 @Abc_Lit2Var(i32 noundef %0) #0 {
  %2 = alloca i32, align 4
  store i32 %0, ptr %2, align 4
  %3 = load i32, ptr %2, align 4
  %4 = ashr i32 %3, 1
  ret i32 %4
}

; Function Attrs: nounwind uwtable
define internal i32 @Gia_ObjId(ptr noundef %0, ptr noundef %1) #0 {
  %3 = alloca ptr, align 8
  %4 = alloca ptr, align 8
  store ptr %0, ptr %3, align 8
  store ptr %1, ptr %4, align 8
  %5 = load ptr, ptr %4, align 8
  %6 = load ptr, ptr %3, align 8
  %7 = getelementptr inbounds %struct.Gia_Man_t_, ptr %6, i32 0, i32 6
  %8 = load ptr, ptr %7, align 8
  %9 = ptrtoint ptr %5 to i64
  %10 = ptrtoint ptr %8 to i64
  %11 = sub i64 %9, %10
  %12 = sdiv exact i64 %11, 12
  %13 = trunc i64 %12 to i32
  ret i32 %13
}

; Function Attrs: nounwind uwtable
define internal i32 @Gia_ObjFaninId1p(ptr noundef %0, ptr noundef %1) #0 {
  %3 = alloca ptr, align 8
  %4 = alloca ptr, align 8
  store ptr %0, ptr %3, align 8
  store ptr %1, ptr %4, align 8
  %5 = load ptr, ptr %4, align 8
  %6 = load ptr, ptr %3, align 8
  %7 = load ptr, ptr %4, align 8
  %8 = call i32 @Gia_ObjId(ptr noundef %6, ptr noundef %7)
  %9 = call i32 @Gia_ObjFaninId1(ptr noundef %5, i32 noundef %8)
  ret i32 %9
}

; Function Attrs: nounwind uwtable
define internal i32 @Gia_ObjFaninId0p(ptr noundef %0, ptr noundef %1) #0 {
  %3 = alloca ptr, align 8
  %4 = alloca ptr, align 8
  store ptr %0, ptr %3, align 8
  store ptr %1, ptr %4, align 8
  %5 = load ptr, ptr %4, align 8
  %6 = load ptr, ptr %3, align 8
  %7 = load ptr, ptr %4, align 8
  %8 = call i32 @Gia_ObjId(ptr noundef %6, ptr noundef %7)
  %9 = call i32 @Gia_ObjFaninId0(ptr noundef %5, i32 noundef %8)
  ret i32 %9
}

; Function Attrs: nounwind uwtable
define internal i32 @Gia_ObjFaninC2(ptr noundef %0, ptr noundef %1) #0 {
  %3 = alloca ptr, align 8
  %4 = alloca ptr, align 8
  store ptr %0, ptr %3, align 8
  store ptr %1, ptr %4, align 8
  %5 = load ptr, ptr %3, align 8
  %6 = getelementptr inbounds %struct.Gia_Man_t_, ptr %5, i32 0, i32 7
  %7 = load ptr, ptr %6, align 8
  %8 = icmp ne ptr %7, null
  br i1 %8, label %9, label %21

9:                                                ; preds = %2
  %10 = load ptr, ptr %3, align 8
  %11 = getelementptr inbounds %struct.Gia_Man_t_, ptr %10, i32 0, i32 7
  %12 = load ptr, ptr %11, align 8
  %13 = load ptr, ptr %3, align 8
  %14 = load ptr, ptr %4, align 8
  %15 = call i32 @Gia_ObjId(ptr noundef %13, ptr noundef %14)
  %16 = sext i32 %15 to i64
  %17 = getelementptr inbounds i32, ptr %12, i64 %16
  %18 = load i32, ptr %17, align 4
  %19 = call i32 @Abc_LitIsCompl(i32 noundef %18)
  %20 = icmp ne i32 %19, 0
  br label %21

21:                                               ; preds = %9, %2
  %22 = phi i1 [ false, %2 ], [ %20, %9 ]
  %23 = zext i1 %22 to i32
  ret i32 %23
}

; Function Attrs: nounwind uwtable
define internal i32 @Gia_ObjFaninId2p(ptr noundef %0, ptr noundef %1) #0 {
  %3 = alloca ptr, align 8
  %4 = alloca ptr, align 8
  store ptr %0, ptr %3, align 8
  store ptr %1, ptr %4, align 8
  %5 = load ptr, ptr %3, align 8
  %6 = getelementptr inbounds %struct.Gia_Man_t_, ptr %5, i32 0, i32 7
  %7 = load ptr, ptr %6, align 8
  %8 = icmp ne ptr %7, null
  br i1 %8, label %9, label %31

9:                                                ; preds = %2
  %10 = load ptr, ptr %3, align 8
  %11 = getelementptr inbounds %struct.Gia_Man_t_, ptr %10, i32 0, i32 7
  %12 = load ptr, ptr %11, align 8
  %13 = load ptr, ptr %3, align 8
  %14 = load ptr, ptr %4, align 8
  %15 = call i32 @Gia_ObjId(ptr noundef %13, ptr noundef %14)
  %16 = sext i32 %15 to i64
  %17 = getelementptr inbounds i32, ptr %12, i64 %16
  %18 = load i32, ptr %17, align 4
  %19 = icmp ne i32 %18, 0
  br i1 %19, label %20, label %31

20:                                               ; preds = %9
  %21 = load ptr, ptr %3, align 8
  %22 = getelementptr inbounds %struct.Gia_Man_t_, ptr %21, i32 0, i32 7
  %23 = load ptr, ptr %22, align 8
  %24 = load ptr, ptr %3, align 8
  %25 = load ptr, ptr %4, align 8
  %26 = call i32 @Gia_ObjId(ptr noundef %24, ptr noundef %25)
  %27 = sext i32 %26 to i64
  %28 = getelementptr inbounds i32, ptr %23, i64 %27
  %29 = load i32, ptr %28, align 4
  %30 = call i32 @Abc_Lit2Var(i32 noundef %29)
  br label %32

31:                                               ; preds = %9, %2
  br label %32

32:                                               ; preds = %31, %20
  %33 = phi i32 [ %30, %20 ], [ -1, %31 ]
  ret i32 %33
}

; Function Attrs: nounwind uwtable
define internal i32 @Gia_ObjRefNumId(ptr noundef %0, i32 noundef %1) #0 {
  %3 = alloca ptr, align 8
  %4 = alloca i32, align 4
  store ptr %0, ptr %3, align 8
  store i32 %1, ptr %4, align 4
  %5 = load ptr, ptr %3, align 8
  %6 = getelementptr inbounds %struct.Gia_Man_t_, ptr %5, i32 0, i32 19
  %7 = load ptr, ptr %6, align 8
  %8 = load i32, ptr %4, align 4
  %9 = sext i32 %8 to i64
  %10 = getelementptr inbounds i32, ptr %7, i64 %9
  %11 = load i32, ptr %10, align 4
  ret i32 %11
}

; Function Attrs: nounwind uwtable
define internal i32 @Gia_ObjIsMuxId(ptr noundef %0, i32 noundef %1) #0 {
  %3 = alloca ptr, align 8
  %4 = alloca i32, align 4
  store ptr %0, ptr %3, align 8
  store i32 %1, ptr %4, align 4
  %5 = load ptr, ptr %3, align 8
  %6 = getelementptr inbounds %struct.Gia_Man_t_, ptr %5, i32 0, i32 7
  %7 = load ptr, ptr %6, align 8
  %8 = icmp ne ptr %7, null
  br i1 %8, label %9, label %18

9:                                                ; preds = %2
  %10 = load ptr, ptr %3, align 8
  %11 = getelementptr inbounds %struct.Gia_Man_t_, ptr %10, i32 0, i32 7
  %12 = load ptr, ptr %11, align 8
  %13 = load i32, ptr %4, align 4
  %14 = sext i32 %13 to i64
  %15 = getelementptr inbounds i32, ptr %12, i64 %14
  %16 = load i32, ptr %15, align 4
  %17 = icmp ugt i32 %16, 0
  br label %18

18:                                               ; preds = %9, %2
  %19 = phi i1 [ false, %2 ], [ %17, %9 ]
  %20 = zext i1 %19 to i32
  ret i32 %20
}

; Function Attrs: nounwind uwtable
define internal ptr @Gia_ManObj(ptr noundef %0, i32 noundef %1) #0 {
  %3 = alloca ptr, align 8
  %4 = alloca i32, align 4
  store ptr %0, ptr %3, align 8
  store i32 %1, ptr %4, align 4
  %5 = load ptr, ptr %3, align 8
  %6 = getelementptr inbounds %struct.Gia_Man_t_, ptr %5, i32 0, i32 6
  %7 = load ptr, ptr %6, align 8
  %8 = load i32, ptr %4, align 4
  %9 = sext i32 %8 to i64
  %10 = getelementptr inbounds %struct.Gia_Obj_t_, ptr %7, i64 %9
  ret ptr %10
}

; Function Attrs: nounwind uwtable
define void @Gia_MuxStructPrint_rec(ptr noundef %0, i32 noundef %1, i32 noundef %2) #0 {
  %4 = alloca ptr, align 8
  %5 = alloca i32, align 4
  %6 = alloca i32, align 4
  %7 = alloca ptr, align 8
  %8 = alloca i32, align 4
  store ptr %0, ptr %4, align 8
  store i32 %1, ptr %5, align 4
  store i32 %2, ptr %6, align 4
  %9 = load ptr, ptr %4, align 8
  %10 = load i32, ptr %5, align 4
  %11 = call ptr @Gia_ManObj(ptr noundef %9, i32 noundef %10)
  store ptr %11, ptr %7, align 8
  %12 = load i32, ptr %6, align 4
  %13 = icmp ne i32 %12, 0
  br i1 %13, label %29, label %14

14:                                               ; preds = %3
  %15 = load ptr, ptr %4, align 8
  %16 = load i32, ptr %5, align 4
  %17 = call i32 @Gia_ObjIsMuxId(ptr noundef %15, i32 noundef %16)
  %18 = icmp ne i32 %17, 0
  br i1 %18, label %19, label %24

19:                                               ; preds = %14
  %20 = load ptr, ptr %4, align 8
  %21 = load i32, ptr %5, align 4
  %22 = call i32 @Gia_ObjRefNumId(ptr noundef %20, i32 noundef %21)
  %23 = icmp sgt i32 %22, 0
  br i1 %23, label %24, label %29

24:                                               ; preds = %19, %14
  %25 = load ptr, ptr %4, align 8
  %26 = load i32, ptr %5, align 4
  %27 = call i32 @Gia_ObjLevelId(ptr noundef %25, i32 noundef %26)
  %28 = call i32 (ptr, ...) @printf(ptr noundef @.str.5, i32 noundef %27)
  br label %81

29:                                               ; preds = %19, %3
  %30 = load ptr, ptr %4, align 8
  %31 = load ptr, ptr %7, align 8
  %32 = call i32 @Gia_ObjFaninId2p(ptr noundef %30, ptr noundef %31)
  store i32 %32, ptr %8, align 4
  %33 = call i32 (ptr, ...) @printf(ptr noundef @.str.6)
  %34 = load ptr, ptr %4, align 8
  %35 = load i32, ptr %8, align 4
  %36 = call i32 @Gia_ObjIsMuxId(ptr noundef %34, i32 noundef %35)
  %37 = icmp ne i32 %36, 0
  br i1 %37, label %38, label %46

38:                                               ; preds = %29
  %39 = load ptr, ptr %4, align 8
  %40 = load i32, ptr %8, align 4
  %41 = call i32 @Gia_ObjRefNumId(ptr noundef %39, i32 noundef %40)
  %42 = icmp eq i32 %41, 0
  br i1 %42, label %43, label %46

43:                                               ; preds = %38
  %44 = load ptr, ptr %4, align 8
  %45 = load i32, ptr %8, align 4
  call void @Gia_MuxStructPrint_rec(ptr noundef %44, i32 noundef %45, i32 noundef 0)
  br label %53

46:                                               ; preds = %38, %29
  %47 = load i32, ptr %8, align 4
  %48 = call i32 (ptr, ...) @printf(ptr noundef @.str.7, i32 noundef %47)
  %49 = load ptr, ptr %4, align 8
  %50 = load i32, ptr %8, align 4
  %51 = call i32 @Gia_ObjLevelId(ptr noundef %49, i32 noundef %50)
  %52 = call i32 (ptr, ...) @printf(ptr noundef @.str.8, i32 noundef %51)
  br label %53

53:                                               ; preds = %46, %43
  %54 = call i32 (ptr, ...) @printf(ptr noundef @.str.9)
  %55 = load ptr, ptr %4, align 8
  %56 = load ptr, ptr %7, align 8
  %57 = call i32 @Gia_ObjFaninC2(ptr noundef %55, ptr noundef %56)
  %58 = icmp ne i32 %57, 0
  br i1 %58, label %59, label %70

59:                                               ; preds = %53
  %60 = load ptr, ptr %4, align 8
  %61 = load ptr, ptr %4, align 8
  %62 = load ptr, ptr %7, align 8
  %63 = call i32 @Gia_ObjFaninId0p(ptr noundef %61, ptr noundef %62)
  call void @Gia_MuxStructPrint_rec(ptr noundef %60, i32 noundef %63, i32 noundef 0)
  %64 = call i32 (ptr, ...) @printf(ptr noundef @.str.10)
  %65 = load ptr, ptr %4, align 8
  %66 = load ptr, ptr %4, align 8
  %67 = load ptr, ptr %7, align 8
  %68 = call i32 @Gia_ObjFaninId1p(ptr noundef %66, ptr noundef %67)
  call void @Gia_MuxStructPrint_rec(ptr noundef %65, i32 noundef %68, i32 noundef 0)
  %69 = call i32 (ptr, ...) @printf(ptr noundef @.str.11)
  br label %81

70:                                               ; preds = %53
  %71 = load ptr, ptr %4, align 8
  %72 = load ptr, ptr %4, align 8
  %73 = load ptr, ptr %7, align 8
  %74 = call i32 @Gia_ObjFaninId1p(ptr noundef %72, ptr noundef %73)
  call void @Gia_MuxStructPrint_rec(ptr noundef %71, i32 noundef %74, i32 noundef 0)
  %75 = call i32 (ptr, ...) @printf(ptr noundef @.str.10)
  %76 = load ptr, ptr %4, align 8
  %77 = load ptr, ptr %4, align 8
  %78 = load ptr, ptr %7, align 8
  %79 = call i32 @Gia_ObjFaninId0p(ptr noundef %77, ptr noundef %78)
  call void @Gia_MuxStructPrint_rec(ptr noundef %76, i32 noundef %79, i32 noundef 0)
  %80 = call i32 (ptr, ...) @printf(ptr noundef @.str.11)
  br label %81

81:                                               ; preds = %70, %59, %24
  ret void
}