; Function Attrs: nounwind uwtable
define void @Gia_MuxStructPrint_rec(ptr noundef %0, i32 noundef %1, i32 noundef %2) local_unnamed_addr #0 {
  %4 = getelementptr i8, ptr %0, i64 32
  %.val = load ptr, ptr %4, align 8
  %5 = sext i32 %1 to i64
  %6 = getelementptr inbounds %struct.Gia_Obj_t_, ptr %.val, i64 %5
  %.not = icmp eq i32 %2, 0
  %7 = getelementptr i8, ptr %0, i64 40
  %.val45 = load ptr, ptr %7, align 8
  br i1 %.not, label %8, label %20

8:                                                ; preds = %3
  %.not.i = icmp eq ptr %.val45, null
  br i1 %.not.i, label %Gia_ObjIsMuxId.exit.thread, label %Gia_ObjIsMuxId.exit

Gia_ObjIsMuxId.exit:                              ; preds = %8
  %9 = getelementptr inbounds i32, ptr %.val45, i64 %5
  %10 = load i32, ptr %9, align 4
  %.not61 = icmp eq i32 %10, 0
  br i1 %.not61, label %Gia_ObjIsMuxId.exit.thread, label %11

11:                                               ; preds = %Gia_ObjIsMuxId.exit
  %12 = getelementptr i8, ptr %0, i64 144
  %.val40 = load ptr, ptr %12, align 8
  %13 = getelementptr inbounds i32, ptr %.val40, i64 %5
  %14 = load i32, ptr %13, align 4
  %15 = icmp sgt i32 %14, 0
  br i1 %15, label %Gia_ObjIsMuxId.exit.thread, label %.thread

.thread:                                          ; preds = %11
  %16 = getelementptr inbounds nuw i8, ptr %0, i64 40
  br label %22

Gia_ObjIsMuxId.exit.thread:                       ; preds = %8, %11, %Gia_ObjIsMuxId.exit
  %17 = getelementptr i8, ptr %0, i64 160
  %.val48 = load ptr, ptr %17, align 8
  %18 = tail call fastcc i32 @Gia_ObjLevelId(ptr %.val48, i32 noundef %1)
  %19 = tail call i32 (ptr, ...) @printf(ptr noundef nonnull dereferenceable(1) @.str.5, i32 noundef %18)
  br label %common.ret71

20:                                               ; preds = %3
  %21 = getelementptr inbounds nuw i8, ptr %0, i64 40
  %.not.i50 = icmp eq ptr %.val45, null
  br i1 %.not.i50, label %Gia_ObjFaninId2p.exit, label %22

22:                                               ; preds = %.thread, %20
  %23 = phi ptr [ %16, %.thread ], [ %21, %20 ]
  %24 = shl nsw i64 %5, 2
  %25 = getelementptr inbounds i8, ptr %.val45, i64 %24
  %26 = load i32, ptr %25, align 4
  %.not7.i = icmp eq i32 %26, 0
  %27 = ashr i32 %26, 1
  %spec.select.i = select i1 %.not7.i, i32 -1, i32 %27
  br label %Gia_ObjFaninId2p.exit

Gia_ObjFaninId2p.exit:                            ; preds = %20, %22
  %28 = phi ptr [ %21, %20 ], [ %23, %22 ]
  %29 = phi i32 [ -1, %20 ], [ %spec.select.i, %22 ]
  %30 = tail call i32 (ptr, ...) @printf(ptr noundef nonnull dereferenceable(1) @.str.6)
  %.val44 = load ptr, ptr %28, align 8
  %.not.i51 = icmp eq ptr %.val44, null
  br i1 %.not.i51, label %Gia_ObjIsMuxId.exit52.thread, label %Gia_ObjIsMuxId.exit52

Gia_ObjIsMuxId.exit52:                            ; preds = %Gia_ObjFaninId2p.exit
  %31 = sext i32 %29 to i64
  %32 = getelementptr inbounds i32, ptr %.val44, i64 %31
  %33 = load i32, ptr %32, align 4
  %.not62 = icmp eq i32 %33, 0
  br i1 %.not62, label %Gia_ObjIsMuxId.exit52.thread, label %34

34:                                               ; preds = %Gia_ObjIsMuxId.exit52
  %35 = getelementptr i8, ptr %0, i64 144
  %.val41 = load ptr, ptr %35, align 8
  %36 = getelementptr inbounds i32, ptr %.val41, i64 %31
  %37 = load i32, ptr %36, align 4
  %38 = icmp eq i32 %37, 0
  br i1 %38, label %39, label %Gia_ObjIsMuxId.exit52.thread

39:                                               ; preds = %34
  tail call void @Gia_MuxStructPrint_rec(ptr noundef nonnull %0, i32 noundef %29, i32 noundef 0)
  br label %44

Gia_ObjIsMuxId.exit52.thread:                     ; preds = %Gia_ObjFaninId2p.exit, %34, %Gia_ObjIsMuxId.exit52
  %40 = tail call i32 (ptr, ...) @printf(ptr noundef nonnull dereferenceable(1) @.str.7, i32 noundef %29)
  %41 = getelementptr i8, ptr %0, i64 160
  %.val49 = load ptr, ptr %41, align 8
  %42 = tail call fastcc i32 @Gia_ObjLevelId(ptr %.val49, i32 noundef %29)
  %43 = tail call i32 (ptr, ...) @printf(ptr noundef nonnull dereferenceable(1) @.str.8, i32 noundef %42)
  br label %44

44:                                               ; preds = %Gia_ObjIsMuxId.exit52.thread, %39
  %putchar = tail call i32 @putchar(i32 41)
  %45 = load ptr, ptr %28, align 8
  %.not.i53 = icmp eq ptr %45, null
  %.val46.pre = load ptr, ptr %4, align 8
  %.pre63 = ptrtoint ptr %6 to i64
  %.pre64 = ptrtoint ptr %.val46.pre to i64
  %.pre66 = sub i64 %.pre63, %.pre64
  %.pre68 = sdiv exact i64 %.pre66, 12
  br i1 %.not.i53, label %Gia_ObjFaninC2.exit.thread, label %Gia_ObjFaninC2.exit

Gia_ObjFaninC2.exit:                              ; preds = %44
  %sext.i54 = shl i64 %.pre68, 32
  %46 = ashr exact i64 %sext.i54, 30
  %47 = getelementptr inbounds i8, ptr %45, i64 %46
  %48 = load i32, ptr %47, align 4
  %49 = and i32 %48, 1
  %.not35 = icmp eq i32 %49, 0
  br i1 %.not35, label %Gia_ObjFaninC2.exit.thread, label %50

common.ret71:                                     ; preds = %Gia_ObjFaninC2.exit.thread, %50, %Gia_ObjIsMuxId.exit.thread
  ret void

50:                                               ; preds = %Gia_ObjFaninC2.exit
  %51 = trunc i64 %.pre68 to i32
  %.val3.i = load i64, ptr %6, align 4
  %52 = trunc i64 %.val3.i to i32
  %53 = and i32 %52, 536870911
  %54 = sub nsw i32 %51, %53
  tail call void @Gia_MuxStructPrint_rec(ptr noundef nonnull %0, i32 noundef %54, i32 noundef 0)
  %putchar38 = tail call i32 @putchar(i32 124)
  %.val47 = load ptr, ptr %4, align 8
  %55 = ptrtoint ptr %.val47 to i64
  %56 = sub i64 %.pre63, %55
  %57 = sdiv exact i64 %56, 12
  %58 = trunc i64 %57 to i32
  %.val3.i55 = load i64, ptr %6, align 4
  %59 = lshr i64 %.val3.i55, 32
  %60 = trunc nuw i64 %59 to i32
  %61 = and i32 %60, 536870911
  %62 = sub nsw i32 %58, %61
  tail call void @Gia_MuxStructPrint_rec(ptr noundef nonnull %0, i32 noundef %62, i32 noundef 0)
  %putchar39 = tail call i32 @putchar(i32 93)
  br label %common.ret71

Gia_ObjFaninC2.exit.thread:                       ; preds = %44, %Gia_ObjFaninC2.exit
  %63 = trunc i64 %.pre68 to i32
  %.val3.i56 = load i64, ptr %6, align 4
  %64 = lshr i64 %.val3.i56, 32
  %65 = trunc nuw i64 %64 to i32
  %66 = and i32 %65, 536870911
  %67 = sub nsw i32 %63, %66
  tail call void @Gia_MuxStructPrint_rec(ptr noundef nonnull %0, i32 noundef %67, i32 noundef 0)
  %putchar36 = tail call i32 @putchar(i32 124)
  %.val42 = load ptr, ptr %4, align 8
  %68 = ptrtoint ptr %.val42 to i64
  %69 = sub i64 %.pre63, %68
  %70 = sdiv exact i64 %69, 12
  %71 = trunc i64 %70 to i32
  %.val3.i57 = load i64, ptr %6, align 4
  %72 = trunc i64 %.val3.i57 to i32
  %73 = and i32 %72, 536870911
  %74 = sub nsw i32 %71, %73
  tail call void @Gia_MuxStructPrint_rec(ptr noundef nonnull %0, i32 noundef %74, i32 noundef 0)
  %putchar37 = tail call i32 @putchar(i32 93)
  br label %common.ret71
}